target datalayout = "e-m:e-p270:32:32-p271:32:32-p272:64:64-i64:64-i128:128-f80:128-n8:16:32:64-S128"
target triple = "x86_64-pc-linux-gnu"

%"class.llvm::SmallVectorBase" = type { ptr, i32, i32 }
%"class.llvm::SmallPtrSetImplBase.base" = type <{ ptr, ptr, i32, i32, i32 }>
%"class.std::__cxx11::basic_string" = type { %"struct.std::__cxx11::basic_string<char>::_Alloc_hider", i64, %union.anon }
%"struct.std::__cxx11::basic_string<char>::_Alloc_hider" = type { ptr }
%union.anon = type { i64, [8 x i8] }
%"class.llvm::IntrusiveRefCntPtr" = type { ptr }
%"class.llvm::SampleProfileLoaderBaseImpl" = type { ptr, %"class.llvm::DenseMap.163", %"class.llvm::DenseMap.166", %"class.llvm::DenseMap.169", %"class.llvm::SmallPtrSet.172", %"class.llvm::SmallSet", %"class.llvm::DenseMap.183", ptr, ptr, ptr, %"class.llvm::DenseMap.186", %"class.llvm::DenseMap.186", %"class.llvm::sampleprofutil::SampleCoverageTracker", %"class.std::unique_ptr.192", %"class.std::map", %"class.std::unique_ptr.205", ptr, %"class.std::__cxx11::basic_string", %"class.std::__cxx11::basic_string", %"class.llvm::IntrusiveRefCntPtr", ptr, ptr }
%"class.llvm::DenseMap.163" = type <{ ptr, i32, i32, i32, [4 x i8] }>
%"class.llvm::DenseMap.166" = type <{ ptr, i32, i32, i32, [4 x i8] }>
%"class.llvm::DenseMap.169" = type <{ ptr, i32, i32, i32, [4 x i8] }>
%"class.llvm::SmallPtrSet.172" = type { %"class.llvm::SmallPtrSetImpl.base.174", [32 x ptr] }
%"class.llvm::SmallPtrSetImpl.base.174" = type { %"class.llvm::SmallPtrSetImplBase.base" }
%"class.llvm::SmallSet" = type { %"class.llvm::SmallVector.175", %"class.std::set" }
%"class.llvm::SmallVector.175" = type { %"class.llvm::SmallVectorImpl.176", %"struct.llvm::SmallVectorStorage.179" }
%"class.llvm::SmallVectorImpl.176" = type { %"class.llvm::SmallVectorTemplateBase.177" }
%"class.llvm::SmallVectorTemplateBase.177" = type { %"class.llvm::SmallVectorTemplateCommon.178" }
%"class.llvm::SmallVectorTemplateCommon.178" = type { %"class.llvm::SmallVectorBase" }
%"struct.llvm::SmallVectorStorage.179" = type { [512 x i8] }
%"class.std::set" = type { %"class.std::_Rb_tree" }
%"class.std::_Rb_tree" = type { %"struct.std::_Rb_tree<std::pair<const llvm::MachineBasicBlock *, const llvm::MachineBasicBlock *>, std::pair<const llvm::MachineBasicBlock *, const llvm::MachineBasicBlock *>, std::_Identity<std::pair<const llvm::MachineBasicBlock *, const llvm::MachineBasicBlock *>>, std::less<std::pair<const llvm::MachineBasicBlock *, const llvm::MachineBasicBlock *>>>::_Rb_tree_impl" }
%"struct.std::_Rb_tree<std::pair<const llvm::MachineBasicBlock *, const llvm::MachineBasicBlock *>, std::pair<const llvm::MachineBasicBlock *, const llvm::MachineBasicBlock *>, std::_Identity<std::pair<const llvm::MachineBasicBlock *, const llvm::MachineBasicBlock *>>, std::less<std::pair<const llvm::MachineBasicBlock *, const llvm::MachineBasicBlock *>>>::_Rb_tree_impl" = type { [8 x i8], %"struct.std::_Rb_tree_header" }
%"struct.std::_Rb_tree_header" = type { %"struct.std::_Rb_tree_node_base", i64 }
%"struct.std::_Rb_tree_node_base" = type { i32, ptr, ptr, ptr }
%"class.llvm::DenseMap.183" = type <{ ptr, i32, i32, i32, [4 x i8] }>
%"class.llvm::DenseMap.186" = type <{ ptr, i32, i32, i32, [4 x i8] }>
%"class.llvm::sampleprofutil::SampleCoverageTracker" = type <{ %"class.llvm::DenseMap.189", i64, i8, [7 x i8] }>
%"class.llvm::DenseMap.189" = type <{ ptr, i32, i32, i32, [4 x i8] }>
%"class.std::unique_ptr.192" = type { %"struct.std::__uniq_ptr_data.193" }
%"struct.std::__uniq_ptr_data.193" = type { %"class.std::__uniq_ptr_impl.194" }
%"class.std::__uniq_ptr_impl.194" = type { %"class.std::tuple.195" }
%"class.std::tuple.195" = type { %"struct.std::_Tuple_impl.196" }
%"struct.std::_Tuple_impl.196" = type { %"struct.std::_Head_base.199" }
%"struct.std::_Head_base.199" = type { ptr }
%"class.std::map" = type { %"class.std::_Rb_tree.200" }
%"class.std::_Rb_tree.200" = type { %"struct.std::_Rb_tree<llvm::sampleprof::SampleContext, std::pair<const llvm::sampleprof::SampleContext, llvm::sampleprof::FunctionSamples>, std::_Select1st<std::pair<const llvm::sampleprof::SampleContext, llvm::sampleprof::FunctionSamples>>, std::less<llvm::sampleprof::SampleContext>>::_Rb_tree_impl" }
%"struct.std::_Rb_tree<llvm::sampleprof::SampleContext, std::pair<const llvm::sampleprof::SampleContext, llvm::sampleprof::FunctionSamples>, std::_Select1st<std::pair<const llvm::sampleprof::SampleContext, llvm::sampleprof::FunctionSamples>>, std::less<llvm::sampleprof::SampleContext>>::_Rb_tree_impl" = type { [8 x i8], %"struct.std::_Rb_tree_header" }
%"class.std::unique_ptr.205" = type { %"struct.std::__uniq_ptr_data.206" }
%"struct.std::__uniq_ptr_data.206" = type { %"class.std::__uniq_ptr_impl.207" }
%"class.std::__uniq_ptr_impl.207" = type { %"class.std::tuple.208" }
%"class.std::tuple.208" = type { %"struct.std::_Tuple_impl.209" }
%"struct.std::_Tuple_impl.209" = type { %"struct.std::_Head_base.212" }
%"struct.std::_Head_base.212" = type { ptr }
%"class.llvm::MIRProfileLoader" = type <{ %"class.llvm::SampleProfileLoaderBaseImpl", ptr, i32, i32, i32, i8, [3 x i8] }>
%"class.llvm::MachineFunctionProperties" = type { %"class.std::bitset" }
%"class.std::bitset" = type { %"struct.std::_Base_bitset" }
%"struct.std::_Base_bitset" = type { i64 }
%"class.std::unique_ptr" = type { %"struct.std::__uniq_ptr_data" }
%"struct.std::__uniq_ptr_data" = type { %"class.std::__uniq_ptr_impl" }
%"class.std::__uniq_ptr_impl" = type { %"class.std::tuple" }
%"class.std::tuple" = type { %"struct.std::_Tuple_impl" }
%"struct.std::_Tuple_impl" = type { %"struct.std::_Head_base.23" }
%"struct.std::_Head_base.23" = type { ptr }
%"class.llvm::MIRProfileLoaderPass" = type { %"class.llvm::MachineFunctionPass", ptr, %"class.std::__cxx11::basic_string", i32, i32, i32, %"class.std::unique_ptr", ptr }
%"class.llvm::MachineFunctionPass" = type { %"class.llvm::FunctionPass.base", %"class.llvm::MachineFunctionProperties", %"class.llvm::MachineFunctionProperties", %"class.llvm::MachineFunctionProperties" }
%"class.llvm::FunctionPass.base" = type { %"class.llvm::Pass.base" }
%"class.llvm::Pass.base" = type <{ ptr, ptr, ptr, i32 }>

; Function Attrs: mustprogress nounwind uwtable
define linkonce_odr hidden noundef nonnull align 8 dereferenceable(8) ptr @_ZNSt10_Head_baseILm0EPN4llvm16MIRProfileLoaderELb0EE7_M_headERKS3_(ptr noundef nonnull align 8 dereferenceable(8) %0) #1 comdat align 2 {
  %2 = alloca ptr, align 8
  store ptr %0, ptr %2, align 8
  %3 = load ptr, ptr %2, align 8
  %4 = getelementptr inbounds nuw %"struct.std::_Head_base.23", ptr %3, i32 0, i32 0
  ret ptr %4
}

; Function Attrs: mustprogress nounwind uwtable
define linkonce_odr hidden noundef nonnull align 8 dereferenceable(8) ptr @_ZNSt11_Tuple_implILm0EJPN4llvm16MIRProfileLoaderESt14default_deleteIS1_EEE7_M_headERKS5_(ptr noundef nonnull align 8 dereferenceable(8) %0) #1 comdat align 2 {
  %2 = alloca ptr, align 8
  store ptr %0, ptr %2, align 8
  %3 = load ptr, ptr %2, align 8
  %4 = call noundef nonnull align 8 dereferenceable(8) ptr @_ZNSt10_Head_baseILm0EPN4llvm16MIRProfileLoaderELb0EE7_M_headERKS3_(ptr noundef nonnull align 8 dereferenceable(8) %3) #2
  ret ptr %4
}

; Function Attrs: mustprogress nounwind uwtable
define linkonce_odr noundef nonnull align 8 dereferenceable(8) ptr @_ZSt12__get_helperILm0EPN4llvm16MIRProfileLoaderEJSt14default_deleteIS1_EEERKT0_RKSt11_Tuple_implIXT_EJS5_DpT1_EE(ptr noundef nonnull align 8 dereferenceable(8) %0) #1 comdat {
  %2 = alloca ptr, align 8
  store ptr %0, ptr %2, align 8
  %3 = load ptr, ptr %2, align 8
  %4 = call noundef nonnull align 8 dereferenceable(8) ptr @_ZNSt11_Tuple_implILm0EJPN4llvm16MIRProfileLoaderESt14default_deleteIS1_EEE7_M_headERKS5_(ptr noundef nonnull align 8 dereferenceable(8) %3) #2
  ret ptr %4
}

; Function Attrs: mustprogress nounwind uwtable
define linkonce_odr noundef nonnull align 8 dereferenceable(8) ptr @_ZSt3getILm0EJPN4llvm16MIRProfileLoaderESt14default_deleteIS1_EEERKNSt13tuple_elementIXT_ESt5tupleIJDpT0_EEE4typeERKS9_(ptr noundef nonnull align 8 dereferenceable(8) %0) #1 comdat {
  %2 = alloca ptr, align 8
  store ptr %0, ptr %2, align 8
  %3 = load ptr, ptr %2, align 8
  %4 = call noundef nonnull align 8 dereferenceable(8) ptr @_ZSt12__get_helperILm0EPN4llvm16MIRProfileLoaderEJSt14default_deleteIS1_EEERKT0_RKSt11_Tuple_implIXT_EJS5_DpT1_EE(ptr noundef nonnull align 8 dereferenceable(8) %3) #2
  ret ptr %4
}

; Function Attrs: mustprogress nounwind uwtable
define linkonce_odr hidden noundef ptr @_ZNKSt15__uniq_ptr_implIN4llvm16MIRProfileLoaderESt14default_deleteIS1_EE6_M_ptrEv(ptr noundef nonnull align 8 dereferenceable(8) %0) #1 comdat align 2 {
  %2 = alloca ptr, align 8
  store ptr %0, ptr %2, align 8
  %3 = load ptr, ptr %2, align 8
  %4 = getelementptr inbounds nuw %"class.std::__uniq_ptr_impl", ptr %3, i32 0, i32 0
  %5 = call noundef nonnull align 8 dereferenceable(8) ptr @_ZSt3getILm0EJPN4llvm16MIRProfileLoaderESt14default_deleteIS1_EEERKNSt13tuple_elementIXT_ESt5tupleIJDpT0_EEE4typeERKS9_(ptr noundef nonnull align 8 dereferenceable(8) %4) #2
  %6 = load ptr, ptr %5, align 8
  ret ptr %6
}

; Function Attrs: mustprogress nounwind uwtable
define internal noundef i32 @_ZN4llvmL15getFSPassBitEndENS_10sampleprof19FSDiscriminatorPassE(i32 noundef %0) #1 {
  %2 = alloca i32, align 4
  %3 = alloca i32, align 4
  store i32 %0, ptr %2, align 4
  %4 = load i32, ptr %2, align 4
  store i32 %4, ptr %3, align 4
  %5 = load i32, ptr %3, align 4
  %6 = mul i32 %5, 6
  %7 = add i32 8, %6
  %8 = sub i32 %7, 1
  ret i32 %8
}

; Function Attrs: mustprogress nounwind uwtable
define internal noundef i32 @_ZN4llvmL17getFSPassBitBeginENS_10sampleprof19FSDiscriminatorPassE(i32 noundef %0) #1 {
  %2 = alloca i32, align 4
  %3 = alloca i32, align 4
  %4 = alloca i32, align 4
  store i32 %0, ptr %3, align 4
  %5 = load i32, ptr %3, align 4
  %6 = icmp eq i32 %5, 0
  br i1 %6, label %7, label %8

7:                                                ; preds = %1
  store i32 0, ptr %2, align 4
  br label %14

8:                                                ; preds = %1
  %9 = load i32, ptr %3, align 4
  store i32 %9, ptr %4, align 4
  %10 = load i32, ptr %4, align 4
  %11 = sub i32 %10, 1
  %12 = call noundef i32 @_ZN4llvmL15getFSPassBitEndENS_10sampleprof19FSDiscriminatorPassE(i32 noundef %11)
  %13 = add i32 %12, 1
  store i32 %13, ptr %2, align 4
  br label %14

14:                                               ; preds = %8, %7
  %15 = load i32, ptr %2, align 4
  ret i32 %15
}

; Function Attrs: mustprogress nounwind uwtable
define linkonce_odr hidden noundef ptr @_ZNKSt10unique_ptrIN4llvm16MIRProfileLoaderESt14default_deleteIS1_EE3getEv(ptr noundef nonnull align 8 dereferenceable(8) %0) #1 comdat align 2 {
  %2 = alloca ptr, align 8
  store ptr %0, ptr %2, align 8
  %3 = load ptr, ptr %2, align 8
  %4 = getelementptr inbounds nuw %"class.std::unique_ptr", ptr %3, i32 0, i32 0
  %5 = call noundef ptr @_ZNKSt15__uniq_ptr_implIN4llvm16MIRProfileLoaderESt14default_deleteIS1_EE6_M_ptrEv(ptr noundef nonnull align 8 dereferenceable(8) %4) #2
  ret ptr %5
}

; Function Attrs: mustprogress nounwind uwtable
define linkonce_odr hidden void @_ZN4llvm16MIRProfileLoader9setFSPassENS_10sampleprof19FSDiscriminatorPassE(ptr noundef nonnull align 8 dereferenceable(1264) %0, i32 noundef %1) #1 comdat align 2 {
  %3 = alloca ptr, align 8
  %4 = alloca i32, align 4
  store ptr %0, ptr %3, align 8
  store i32 %1, ptr %4, align 4
  %5 = load ptr, ptr %3, align 8
  %6 = load i32, ptr %4, align 4
  %7 = getelementptr inbounds nuw %"class.llvm::MIRProfileLoader", ptr %5, i32 0, i32 2
  store i32 %6, ptr %7, align 8
  %8 = getelementptr inbounds nuw %"class.llvm::MIRProfileLoader", ptr %5, i32 0, i32 2
  %9 = load i32, ptr %8, align 8
  %10 = call noundef i32 @_ZN4llvmL17getFSPassBitBeginENS_10sampleprof19FSDiscriminatorPassE(i32 noundef %9)
  %11 = getelementptr inbounds nuw %"class.llvm::MIRProfileLoader", ptr %5, i32 0, i32 3
  store i32 %10, ptr %11, align 4
  %12 = getelementptr inbounds nuw %"class.llvm::MIRProfileLoader", ptr %5, i32 0, i32 2
  %13 = load i32, ptr %12, align 8
  %14 = call noundef i32 @_ZN4llvmL15getFSPassBitEndENS_10sampleprof19FSDiscriminatorPassE(i32 noundef %13)
  %15 = getelementptr inbounds nuw %"class.llvm::MIRProfileLoader", ptr %5, i32 0, i32 4
  store i32 %14, ptr %15, align 8
  ret void
}

; Function Attrs: mustprogress nounwind uwtable
define linkonce_odr hidden noundef ptr @_ZNKSt10unique_ptrIN4llvm16MIRProfileLoaderESt14default_deleteIS1_EEptEv(ptr noundef nonnull align 8 dereferenceable(8) %0) #1 comdat align 2 {
  %2 = alloca ptr, align 8
  store ptr %0, ptr %2, align 8
  %3 = load ptr, ptr %2, align 8
  %4 = call noundef ptr @_ZNKSt10unique_ptrIN4llvm16MIRProfileLoaderESt14default_deleteIS1_EE3getEv(ptr noundef nonnull align 8 dereferenceable(8) %3) #2
  ret ptr %4
}

; Function Attrs: mustprogress nounwind uwtable
define dso_local noundef zeroext i1 @_ZN4llvm20MIRProfileLoaderPass16doInitializationERNS_6ModuleE(ptr noundef nonnull align 8 dereferenceable(128) %0, ptr noundef nonnull align 8 dereferenceable(857) %1) unnamed_addr #1 align 2 {
  %3 = alloca ptr, align 8
  %4 = alloca ptr, align 8
  store ptr %0, ptr %3, align 8
  store ptr %1, ptr %4, align 8
  %5 = load ptr, ptr %3, align 8
  br label %6

6:                                                ; preds = %2
  br label %7

7:                                                ; preds = %6
  %8 = getelementptr inbounds nuw %"class.llvm::MIRProfileLoaderPass", ptr %5, i32 0, i32 6
  %9 = call noundef ptr @_ZNKSt10unique_ptrIN4llvm16MIRProfileLoaderESt14default_deleteIS1_EEptEv(ptr noundef nonnull align 8 dereferenceable(8) %8) #2
  %10 = getelementptr inbounds nuw %"class.llvm::MIRProfileLoaderPass", ptr %5, i32 0, i32 3
  %11 = load i32, ptr %10, align 8
  call void @_ZN4llvm16MIRProfileLoader9setFSPassENS_10sampleprof19FSDiscriminatorPassE(ptr noundef nonnull align 8 dereferenceable(1264) %9, i32 noundef %11)
  %12 = getelementptr inbounds nuw %"class.llvm::MIRProfileLoaderPass", ptr %5, i32 0, i32 6
  %13 = call noundef ptr @_ZNKSt10unique_ptrIN4llvm16MIRProfileLoaderESt14default_deleteIS1_EEptEv(ptr noundef nonnull align 8 dereferenceable(8) %12) #2
  %14 = load ptr, ptr %4, align 8
  %15 = call noundef zeroext i1 @_ZN4llvm16MIRProfileLoader16doInitializationERNS_6ModuleE(ptr noundef nonnull align 8 dereferenceable(1264) %13, ptr noundef nonnull align 8 dereferenceable(857) %14)
  ret i1 %15
}