; Function Attrs: mustprogress nounwind uwtable
define dso_local noundef zeroext i1 @_ZN4llvm20MIRProfileLoaderPass16doInitializationERNS_6ModuleE(ptr noundef nonnull readonly align 8 captures(none) dereferenceable(128) %0, ptr noundef nonnull align 8 dereferenceable(857) %1) unnamed_addr #0 align 2 {
  %3 = getelementptr inbounds nuw i8, ptr %0, i64 112
  %4 = load ptr, ptr %3, align 8
  %5 = getelementptr inbounds nuw i8, ptr %0, i64 96
  %6 = load i32, ptr %5, align 8
  %7 = getelementptr inbounds nuw i8, ptr %4, i64 1248
  store i32 %6, ptr %7, align 8
  %8 = icmp eq i32 %6, 0
  %9 = mul i32 %6, 6
  %10 = add i32 %9, 2
  %.0.i.i = select i1 %8, i32 0, i32 %10
  %11 = getelementptr inbounds nuw i8, ptr %4, i64 1252
  store i32 %.0.i.i, ptr %11, align 4
  %12 = add i32 %9, 7
  %13 = getelementptr inbounds nuw i8, ptr %4, i64 1256
  store i32 %12, ptr %13, align 8
  %14 = load ptr, ptr %3, align 8
  %15 = tail call noundef zeroext i1 @_ZN4llvm16MIRProfileLoader16doInitializationERNS_6ModuleE(ptr noundef nonnull align 8 dereferenceable(1264) %14, ptr noundef nonnull align 8 dereferenceable(857) %1)
  ret i1 %15
}